
crc32.riscv: formato do arquivo elf64-littleriscv


Desmontagem da seção .text:

0000000080001048 <crc32b>:
    80001048:	00054703          	lbu	a4,0(a0)
    8000104c:	04070863          	beqz	a4,8000109c <crc32b+0x54>
    80001050:	edb886b7          	lui	a3,0xedb88
    80001054:	00150613          	addi	a2,a0,1
    80001058:	fff00793          	li	a5,-1
    8000105c:	32068693          	addi	a3,a3,800 # ffffffffedb88320 <_end+0xffffffff6db845e0>
    80001060:	00f747b3          	xor	a5,a4,a5
    80001064:	00800713          	li	a4,8
    80001068:	0017f513          	andi	a0,a5,1
    8000106c:	40a0053b          	negw	a0,a0
    80001070:	0017d79b          	srliw	a5,a5,0x1
    80001074:	00a6f533          	and	a0,a3,a0
    80001078:	00f54533          	xor	a0,a0,a5
    8000107c:	fff7071b          	addiw	a4,a4,-1
    80001080:	0005079b          	sext.w	a5,a0
    80001084:	fe0712e3          	bnez	a4,80001068 <crc32b+0x20>
    80001088:	00160613          	addi	a2,a2,1
    8000108c:	fff64703          	lbu	a4,-1(a2)
    80001090:	fc0718e3          	bnez	a4,80001060 <crc32b+0x18>
    80001094:	fff7c513          	not	a0,a5
    80001098:	00008067          	ret
    8000109c:	00000513          	li	a0,0
    800010a0:	00008067          	ret

00000000800010a4 <vprintfmt>:
    800010a4:	ea010113          	addi	sp,sp,-352
    800010a8:	14813823          	sd	s0,336(sp)
    800010ac:	14913423          	sd	s1,328(sp)
    800010b0:	15213023          	sd	s2,320(sp)
    800010b4:	13413823          	sd	s4,304(sp)
    800010b8:	13513423          	sd	s5,296(sp)
    800010bc:	13613023          	sd	s6,288(sp)
    800010c0:	14113c23          	sd	ra,344(sp)
    800010c4:	13313c23          	sd	s3,312(sp)
    800010c8:	11713c23          	sd	s7,280(sp)
    800010cc:	11813823          	sd	s8,272(sp)
    800010d0:	11913423          	sd	s9,264(sp)
    800010d4:	00050913          	mv	s2,a0
    800010d8:	00058493          	mv	s1,a1
    800010dc:	00060413          	mv	s0,a2
    800010e0:	00068b13          	mv	s6,a3
    800010e4:	02500a13          	li	s4,37
    800010e8:	00001a97          	auipc	s5,0x1
    800010ec:	aaca8a93          	addi	s5,s5,-1364 # 80001b94 <main+0xd0>
    800010f0:	0140006f          	j	80001104 <vprintfmt+0x60>
    800010f4:	06050063          	beqz	a0,80001154 <vprintfmt+0xb0>
    800010f8:	00048593          	mv	a1,s1
    800010fc:	00140413          	addi	s0,s0,1
    80001100:	000900e7          	jalr	s2
    80001104:	00044503          	lbu	a0,0(s0)
    80001108:	ff4516e3          	bne	a0,s4,800010f4 <vprintfmt+0x50>
    8000110c:	00144683          	lbu	a3,1(s0)
    80001110:	00140c93          	addi	s9,s0,1
    80001114:	000c8713          	mv	a4,s9
    80001118:	02000b93          	li	s7,32
    8000111c:	fff00993          	li	s3,-1
    80001120:	fff00c13          	li	s8,-1
    80001124:	00000593          	li	a1,0
    80001128:	05500613          	li	a2,85
    8000112c:	00900513          	li	a0,9
    80001130:	fdd6879b          	addiw	a5,a3,-35
    80001134:	0ff7f793          	andi	a5,a5,255
    80001138:	00170413          	addi	s0,a4,1
    8000113c:	2af66863          	bltu	a2,a5,800013ec <vprintfmt+0x348>
    80001140:	00279793          	slli	a5,a5,0x2
    80001144:	015787b3          	add	a5,a5,s5
    80001148:	0007a783          	lw	a5,0(a5)
    8000114c:	015787b3          	add	a5,a5,s5
    80001150:	00078067          	jr	a5
    80001154:	15813083          	ld	ra,344(sp)
    80001158:	15013403          	ld	s0,336(sp)
    8000115c:	14813483          	ld	s1,328(sp)
    80001160:	14013903          	ld	s2,320(sp)
    80001164:	13813983          	ld	s3,312(sp)
    80001168:	13013a03          	ld	s4,304(sp)
    8000116c:	12813a83          	ld	s5,296(sp)
    80001170:	12013b03          	ld	s6,288(sp)
    80001174:	11813b83          	ld	s7,280(sp)
    80001178:	11013c03          	ld	s8,272(sp)
    8000117c:	10813c83          	ld	s9,264(sp)
    80001180:	16010113          	addi	sp,sp,352
    80001184:	00008067          	ret
    80001188:	00800713          	li	a4,8
    8000118c:	00100793          	li	a5,1
    80001190:	008b0693          	addi	a3,s6,8
    80001194:	12b7d863          	ble	a1,a5,800012c4 <vprintfmt+0x220>
    80001198:	000b3783          	ld	a5,0(s6)
    8000119c:	00068b13          	mv	s6,a3
    800011a0:	02e7f6b3          	remu	a3,a5,a4
    800011a4:	000b8b9b          	sext.w	s7,s7
    800011a8:	00410613          	addi	a2,sp,4
    800011ac:	00100993          	li	s3,1
    800011b0:	00d12023          	sw	a3,0(sp)
    800011b4:	00e7f663          	bleu	a4,a5,800011c0 <vprintfmt+0x11c>
    800011b8:	2480006f          	j	80001400 <vprintfmt+0x35c>
    800011bc:	000c8993          	mv	s3,s9
    800011c0:	02e7d7b3          	divu	a5,a5,a4
    800011c4:	00460613          	addi	a2,a2,4
    800011c8:	00198c9b          	addiw	s9,s3,1
    800011cc:	02e7f6b3          	remu	a3,a5,a4
    800011d0:	fed62e23          	sw	a3,-4(a2)
    800011d4:	fee7f4e3          	bleu	a4,a5,800011bc <vprintfmt+0x118>
    800011d8:	018cde63          	ble	s8,s9,800011f4 <vprintfmt+0x150>
    800011dc:	000c0c1b          	sext.w	s8,s8
    800011e0:	fffc0c1b          	addiw	s8,s8,-1
    800011e4:	00048593          	mv	a1,s1
    800011e8:	000b8513          	mv	a0,s7
    800011ec:	000900e7          	jalr	s2
    800011f0:	ff8cc8e3          	blt	s9,s8,800011e0 <vprintfmt+0x13c>
    800011f4:	00299793          	slli	a5,s3,0x2
    800011f8:	10010713          	addi	a4,sp,256
    800011fc:	00f707b3          	add	a5,a4,a5
    80001200:	f007a683          	lw	a3,-256(a5)
    80001204:	fff98b9b          	addiw	s7,s3,-1
    80001208:	002b9b93          	slli	s7,s7,0x2
    8000120c:	01710bb3          	add	s7,sp,s7
    80001210:	00900c13          	li	s8,9
    80001214:	0100006f          	j	80001224 <vprintfmt+0x180>
    80001218:	000ba683          	lw	a3,0(s7)
    8000121c:	fff98993          	addi	s3,s3,-1
    80001220:	ffcb8b93          	addi	s7,s7,-4
    80001224:	03000513          	li	a0,48
    80001228:	00dc7463          	bleu	a3,s8,80001230 <vprintfmt+0x18c>
    8000122c:	05700513          	li	a0,87
    80001230:	00048593          	mv	a1,s1
    80001234:	00d5053b          	addw	a0,a0,a3
    80001238:	000900e7          	jalr	s2
    8000123c:	0009879b          	sext.w	a5,s3
    80001240:	fcf04ce3          	bgtz	a5,80001218 <vprintfmt+0x174>
    80001244:	ec1ff06f          	j	80001104 <vprintfmt+0x60>
    80001248:	03000513          	li	a0,48
    8000124c:	00048593          	mv	a1,s1
    80001250:	000900e7          	jalr	s2
    80001254:	00048593          	mv	a1,s1
    80001258:	07800513          	li	a0,120
    8000125c:	000900e7          	jalr	s2
    80001260:	008b0693          	addi	a3,s6,8
    80001264:	01000713          	li	a4,16
    80001268:	f31ff06f          	j	80001198 <vprintfmt+0xf4>
    8000126c:	000b3c83          	ld	s9,0(s6)
    80001270:	008b0b13          	addi	s6,s6,8
    80001274:	200c8c63          	beqz	s9,8000148c <vprintfmt+0x3e8>
    80001278:	1b805463          	blez	s8,80001420 <vprintfmt+0x37c>
    8000127c:	02d00793          	li	a5,45
    80001280:	1efb8e63          	beq	s7,a5,8000147c <vprintfmt+0x3d8>
    80001284:	000c059b          	sext.w	a1,s8
    80001288:	20098e63          	beqz	s3,800014a4 <vprintfmt+0x400>
    8000128c:	000cc783          	lbu	a5,0(s9)
    80001290:	20078a63          	beqz	a5,800014a4 <vprintfmt+0x400>
    80001294:	001c8793          	addi	a5,s9,1
    80001298:	013c8633          	add	a2,s9,s3
    8000129c:	24f60463          	beq	a2,a5,800014e4 <vprintfmt+0x440>
    800012a0:	00178713          	addi	a4,a5,1
    800012a4:	fff74683          	lbu	a3,-1(a4)
    800012a8:	16068663          	beqz	a3,80001414 <vprintfmt+0x370>
    800012ac:	00070793          	mv	a5,a4
    800012b0:	fedff06f          	j	8000129c <vprintfmt+0x1f8>
    800012b4:	00100793          	li	a5,1
    800012b8:	00a00713          	li	a4,10
    800012bc:	008b0693          	addi	a3,s6,8
    800012c0:	ecb7cce3          	blt	a5,a1,80001198 <vprintfmt+0xf4>
    800012c4:	ec059ae3          	bnez	a1,80001198 <vprintfmt+0xf4>
    800012c8:	000b6783          	lwu	a5,0(s6)
    800012cc:	00068b13          	mv	s6,a3
    800012d0:	ed1ff06f          	j	800011a0 <vprintfmt+0xfc>
    800012d4:	00174683          	lbu	a3,1(a4)
    800012d8:	00040713          	mv	a4,s0
    800012dc:	e55ff06f          	j	80001130 <vprintfmt+0x8c>
    800012e0:	00048593          	mv	a1,s1
    800012e4:	02500513          	li	a0,37
    800012e8:	000900e7          	jalr	s2
    800012ec:	e19ff06f          	j	80001104 <vprintfmt+0x60>
    800012f0:	01000713          	li	a4,16
    800012f4:	e99ff06f          	j	8000118c <vprintfmt+0xe8>
    800012f8:	000b2983          	lw	s3,0(s6)
    800012fc:	00174683          	lbu	a3,1(a4)
    80001300:	008b0b13          	addi	s6,s6,8
    80001304:	00040713          	mv	a4,s0
    80001308:	e20c54e3          	bgez	s8,80001130 <vprintfmt+0x8c>
    8000130c:	00098c13          	mv	s8,s3
    80001310:	fff00993          	li	s3,-1
    80001314:	e1dff06f          	j	80001130 <vprintfmt+0x8c>
    80001318:	00174683          	lbu	a3,1(a4)
    8000131c:	02d00b93          	li	s7,45
    80001320:	00040713          	mv	a4,s0
    80001324:	e0dff06f          	j	80001130 <vprintfmt+0x8c>
    80001328:	fffc4793          	not	a5,s8
    8000132c:	43f7d793          	srai	a5,a5,0x3f
    80001330:	00fc7c33          	and	s8,s8,a5
    80001334:	00174683          	lbu	a3,1(a4)
    80001338:	000c0c1b          	sext.w	s8,s8
    8000133c:	00040713          	mv	a4,s0
    80001340:	df1ff06f          	j	80001130 <vprintfmt+0x8c>
    80001344:	00174683          	lbu	a3,1(a4)
    80001348:	03000b93          	li	s7,48
    8000134c:	00040713          	mv	a4,s0
    80001350:	de1ff06f          	j	80001130 <vprintfmt+0x8c>
    80001354:	fd06899b          	addiw	s3,a3,-48
    80001358:	00174683          	lbu	a3,1(a4)
    8000135c:	00040713          	mv	a4,s0
    80001360:	fd06879b          	addiw	a5,a3,-48
    80001364:	0006881b          	sext.w	a6,a3
    80001368:	faf560e3          	bltu	a0,a5,80001308 <vprintfmt+0x264>
    8000136c:	00170713          	addi	a4,a4,1
    80001370:	0029979b          	slliw	a5,s3,0x2
    80001374:	00074683          	lbu	a3,0(a4)
    80001378:	013789bb          	addw	s3,a5,s3
    8000137c:	0019999b          	slliw	s3,s3,0x1
    80001380:	010989bb          	addw	s3,s3,a6
    80001384:	fd06879b          	addiw	a5,a3,-48
    80001388:	fd09899b          	addiw	s3,s3,-48
    8000138c:	0006881b          	sext.w	a6,a3
    80001390:	fcf57ee3          	bleu	a5,a0,8000136c <vprintfmt+0x2c8>
    80001394:	f75ff06f          	j	80001308 <vprintfmt+0x264>
    80001398:	000b2503          	lw	a0,0(s6)
    8000139c:	00048593          	mv	a1,s1
    800013a0:	008b0b13          	addi	s6,s6,8
    800013a4:	000900e7          	jalr	s2
    800013a8:	d5dff06f          	j	80001104 <vprintfmt+0x60>
    800013ac:	00100793          	li	a5,1
    800013b0:	008b0c93          	addi	s9,s6,8
    800013b4:	0ab7de63          	ble	a1,a5,80001470 <vprintfmt+0x3cc>
    800013b8:	000b3983          	ld	s3,0(s6)
    800013bc:	1009d263          	bgez	s3,800014c0 <vprintfmt+0x41c>
    800013c0:	00048593          	mv	a1,s1
    800013c4:	02d00513          	li	a0,45
    800013c8:	000900e7          	jalr	s2
    800013cc:	000c8b13          	mv	s6,s9
    800013d0:	413007b3          	neg	a5,s3
    800013d4:	00a00713          	li	a4,10
    800013d8:	dc9ff06f          	j	800011a0 <vprintfmt+0xfc>
    800013dc:	00174683          	lbu	a3,1(a4)
    800013e0:	0015859b          	addiw	a1,a1,1
    800013e4:	00040713          	mv	a4,s0
    800013e8:	d49ff06f          	j	80001130 <vprintfmt+0x8c>
    800013ec:	00048593          	mv	a1,s1
    800013f0:	02500513          	li	a0,37
    800013f4:	000900e7          	jalr	s2
    800013f8:	000c8413          	mv	s0,s9
    800013fc:	d09ff06f          	j	80001104 <vprintfmt+0x60>
    80001400:	00100793          	li	a5,1
    80001404:	00000993          	li	s3,0
    80001408:	00100c93          	li	s9,1
    8000140c:	dd87c8e3          	blt	a5,s8,800011dc <vprintfmt+0x138>
    80001410:	df5ff06f          	j	80001204 <vprintfmt+0x160>
    80001414:	41978c33          	sub	s8,a5,s9
    80001418:	41858c3b          	subw	s8,a1,s8
    8000141c:	09804463          	bgtz	s8,800014a4 <vprintfmt+0x400>
    80001420:	000cc503          	lbu	a0,0(s9)
    80001424:	ce0500e3          	beqz	a0,80001104 <vprintfmt+0x60>
    80001428:	fff00b93          	li	s7,-1
    8000142c:	0209dc63          	bgez	s3,80001464 <vprintfmt+0x3c0>
    80001430:	00048593          	mv	a1,s1
    80001434:	001c8c93          	addi	s9,s9,1
    80001438:	000900e7          	jalr	s2
    8000143c:	000cc503          	lbu	a0,0(s9)
    80001440:	fffc0c1b          	addiw	s8,s8,-1
    80001444:	fe0514e3          	bnez	a0,8000142c <vprintfmt+0x388>
    80001448:	cb805ee3          	blez	s8,80001104 <vprintfmt+0x60>
    8000144c:	fffc0c1b          	addiw	s8,s8,-1
    80001450:	00048593          	mv	a1,s1
    80001454:	02000513          	li	a0,32
    80001458:	000900e7          	jalr	s2
    8000145c:	fe0c18e3          	bnez	s8,8000144c <vprintfmt+0x3a8>
    80001460:	ca5ff06f          	j	80001104 <vprintfmt+0x60>
    80001464:	fff9899b          	addiw	s3,s3,-1
    80001468:	fd7994e3          	bne	s3,s7,80001430 <vprintfmt+0x38c>
    8000146c:	fddff06f          	j	80001448 <vprintfmt+0x3a4>
    80001470:	f40594e3          	bnez	a1,800013b8 <vprintfmt+0x314>
    80001474:	000b2983          	lw	s3,0(s6)
    80001478:	f45ff06f          	j	800013bc <vprintfmt+0x318>
    8000147c:	000cc503          	lbu	a0,0(s9)
    80001480:	fc0506e3          	beqz	a0,8000144c <vprintfmt+0x3a8>
    80001484:	fff00b93          	li	s7,-1
    80001488:	fa5ff06f          	j	8000142c <vprintfmt+0x388>
    8000148c:	05805263          	blez	s8,800014d0 <vprintfmt+0x42c>
    80001490:	02d00793          	li	a5,45
    80001494:	02fb8e63          	beq	s7,a5,800014d0 <vprintfmt+0x42c>
    80001498:	00001c97          	auipc	s9,0x1
    8000149c:	858c8c93          	addi	s9,s9,-1960 # 80001cf0 <main+0x22c>
    800014a0:	de5ff06f          	j	80001284 <vprintfmt+0x1e0>
    800014a4:	000b8b9b          	sext.w	s7,s7
    800014a8:	fffc0c1b          	addiw	s8,s8,-1
    800014ac:	00048593          	mv	a1,s1
    800014b0:	000b8513          	mv	a0,s7
    800014b4:	000900e7          	jalr	s2
    800014b8:	fe0c18e3          	bnez	s8,800014a8 <vprintfmt+0x404>
    800014bc:	f65ff06f          	j	80001420 <vprintfmt+0x37c>
    800014c0:	00098793          	mv	a5,s3
    800014c4:	000c8b13          	mv	s6,s9
    800014c8:	00a00713          	li	a4,10
    800014cc:	cd5ff06f          	j	800011a0 <vprintfmt+0xfc>
    800014d0:	00001c97          	auipc	s9,0x1
    800014d4:	820c8c93          	addi	s9,s9,-2016 # 80001cf0 <main+0x22c>
    800014d8:	02800513          	li	a0,40
    800014dc:	fff00b93          	li	s7,-1
    800014e0:	f4dff06f          	j	8000142c <vprintfmt+0x388>
    800014e4:	41960c33          	sub	s8,a2,s9
    800014e8:	41858c3b          	subw	s8,a1,s8
    800014ec:	fb804ce3          	bgtz	s8,800014a4 <vprintfmt+0x400>
    800014f0:	f31ff06f          	j	80001420 <vprintfmt+0x37c>

00000000800014f4 <sprintf_putch.2952>:
    800014f4:	0005b783          	ld	a5,0(a1)
    800014f8:	00a78023          	sb	a0,0(a5)
    800014fc:	0005b783          	ld	a5,0(a1)
    80001500:	00178793          	addi	a5,a5,1
    80001504:	00f5b023          	sd	a5,0(a1)
    80001508:	00008067          	ret

000000008000150c <putchar>:
    8000150c:	04022803          	lw	a6,64(tp) # 40 <buflen.2838>
    80001510:	00020793          	mv	a5,tp
    80001514:	010787b3          	add	a5,a5,a6
    80001518:	f8010113          	addi	sp,sp,-128
    8000151c:	0018069b          	addiw	a3,a6,1
    80001520:	04d22023          	sw	a3,64(tp) # 40 <buflen.2838>
    80001524:	00a78023          	sb	a0,0(a5)
    80001528:	03f10713          	addi	a4,sp,63
    8000152c:	00a00793          	li	a5,10
    80001530:	fc077713          	andi	a4,a4,-64
    80001534:	00f50c63          	beq	a0,a5,8000154c <putchar+0x40>
    80001538:	04000793          	li	a5,64
    8000153c:	00f68863          	beq	a3,a5,8000154c <putchar+0x40>
    80001540:	00000513          	li	a0,0
    80001544:	08010113          	addi	sp,sp,128
    80001548:	00008067          	ret
    8000154c:	04000793          	li	a5,64
    80001550:	00f73023          	sd	a5,0(a4)
    80001554:	00100793          	li	a5,1
    80001558:	00f73423          	sd	a5,8(a4)
    8000155c:	00020613          	mv	a2,tp
    80001560:	00c73823          	sd	a2,16(a4)
    80001564:	00d73c23          	sd	a3,24(a4)
    80001568:	0ff0000f          	fence
    8000156c:	00000797          	auipc	a5,0x0
    80001570:	a8e7ba23          	sd	a4,-1388(a5) # 80001000 <tohost>
    80001574:	00000697          	auipc	a3,0x0
    80001578:	acc68693          	addi	a3,a3,-1332 # 80001040 <fromhost>
    8000157c:	0006b783          	ld	a5,0(a3)
    80001580:	fe078ee3          	beqz	a5,8000157c <putchar+0x70>
    80001584:	00000797          	auipc	a5,0x0
    80001588:	aa07be23          	sd	zero,-1348(a5) # 80001040 <fromhost>
    8000158c:	0ff0000f          	fence
    80001590:	04022023          	sw	zero,64(tp) # 40 <buflen.2838>
    80001594:	00073783          	ld	a5,0(a4)
    80001598:	00000513          	li	a0,0
    8000159c:	08010113          	addi	sp,sp,128
    800015a0:	00008067          	ret

00000000800015a4 <setStats>:
    800015a4:	b00027f3          	csrr	a5,mcycle
    800015a8:	00002717          	auipc	a4,0x2
    800015ac:	76070713          	addi	a4,a4,1888 # 80003d08 <counters>
    800015b0:	00051e63          	bnez	a0,800015cc <setStats+0x28>
    800015b4:	00073683          	ld	a3,0(a4)
    800015b8:	00000617          	auipc	a2,0x0
    800015bc:	74060613          	addi	a2,a2,1856 # 80001cf8 <main+0x234>
    800015c0:	00002597          	auipc	a1,0x2
    800015c4:	74c5bc23          	sd	a2,1880(a1) # 80003d18 <counter_names>
    800015c8:	40d787b3          	sub	a5,a5,a3
    800015cc:	00002697          	auipc	a3,0x2
    800015d0:	72f6be23          	sd	a5,1852(a3) # 80003d08 <counters>
    800015d4:	b02027f3          	csrr	a5,minstret
    800015d8:	00051e63          	bnez	a0,800015f4 <setStats+0x50>
    800015dc:	00873703          	ld	a4,8(a4)
    800015e0:	00000697          	auipc	a3,0x0
    800015e4:	72068693          	addi	a3,a3,1824 # 80001d00 <main+0x23c>
    800015e8:	00002617          	auipc	a2,0x2
    800015ec:	72d63c23          	sd	a3,1848(a2) # 80003d20 <counter_names+0x8>
    800015f0:	40e787b3          	sub	a5,a5,a4
    800015f4:	00002717          	auipc	a4,0x2
    800015f8:	70f73e23          	sd	a5,1820(a4) # 80003d10 <counters+0x8>
    800015fc:	00008067          	ret

0000000080001600 <tohost_exit>:
    80001600:	00151793          	slli	a5,a0,0x1
    80001604:	0017e793          	ori	a5,a5,1
    80001608:	00000717          	auipc	a4,0x0
    8000160c:	9ef73c23          	sd	a5,-1544(a4) # 80001000 <tohost>
    80001610:	0000006f          	j	80001610 <tohost_exit+0x10>

0000000080001614 <handle_trap>:
    80001614:	000017b7          	lui	a5,0x1
    80001618:	a7378793          	addi	a5,a5,-1421 # a73 <_tbss_end+0xa2f>
    8000161c:	00000717          	auipc	a4,0x0
    80001620:	9ef73223          	sd	a5,-1564(a4) # 80001000 <tohost>
    80001624:	0000006f          	j	80001624 <handle_trap+0x10>

0000000080001628 <exit>:
    80001628:	ff010113          	addi	sp,sp,-16
    8000162c:	00113423          	sd	ra,8(sp)
    80001630:	fd1ff0ef          	jal	ra,80001600 <tohost_exit>

0000000080001634 <abort>:
    80001634:	10d00793          	li	a5,269
    80001638:	00000717          	auipc	a4,0x0
    8000163c:	9cf73423          	sd	a5,-1592(a4) # 80001000 <tohost>
    80001640:	0000006f          	j	80001640 <abort+0xc>

0000000080001644 <printstr>:
    80001644:	00054783          	lbu	a5,0(a0)
    80001648:	f8010113          	addi	sp,sp,-128
    8000164c:	03f10713          	addi	a4,sp,63
    80001650:	00050693          	mv	a3,a0
    80001654:	fc077713          	andi	a4,a4,-64
    80001658:	06078263          	beqz	a5,800016bc <printstr+0x78>
    8000165c:	00050613          	mv	a2,a0
    80001660:	00150513          	addi	a0,a0,1
    80001664:	00054783          	lbu	a5,0(a0)
    80001668:	fe079ce3          	bnez	a5,80001660 <printstr+0x1c>
    8000166c:	40c50533          	sub	a0,a0,a2
    80001670:	04000793          	li	a5,64
    80001674:	00f73023          	sd	a5,0(a4)
    80001678:	00100793          	li	a5,1
    8000167c:	00f73423          	sd	a5,8(a4)
    80001680:	00d73823          	sd	a3,16(a4)
    80001684:	00a73c23          	sd	a0,24(a4)
    80001688:	0ff0000f          	fence
    8000168c:	00000797          	auipc	a5,0x0
    80001690:	96e7ba23          	sd	a4,-1676(a5) # 80001000 <tohost>
    80001694:	00000697          	auipc	a3,0x0
    80001698:	9ac68693          	addi	a3,a3,-1620 # 80001040 <fromhost>
    8000169c:	0006b783          	ld	a5,0(a3)
    800016a0:	fe078ee3          	beqz	a5,8000169c <printstr+0x58>
    800016a4:	00000797          	auipc	a5,0x0
    800016a8:	9807be23          	sd	zero,-1636(a5) # 80001040 <fromhost>
    800016ac:	0ff0000f          	fence
    800016b0:	00073783          	ld	a5,0(a4)
    800016b4:	08010113          	addi	sp,sp,128
    800016b8:	00008067          	ret
    800016bc:	00000513          	li	a0,0
    800016c0:	fb1ff06f          	j	80001670 <printstr+0x2c>

00000000800016c4 <thread_entry>:
    800016c4:	00050463          	beqz	a0,800016cc <thread_entry+0x8>
    800016c8:	0000006f          	j	800016c8 <thread_entry+0x4>
    800016cc:	00008067          	ret

00000000800016d0 <printhex>:
    800016d0:	fd010113          	addi	sp,sp,-48
    800016d4:	02113423          	sd	ra,40(sp)
    800016d8:	01710713          	addi	a4,sp,23
    800016dc:	00710813          	addi	a6,sp,7
    800016e0:	00900593          	li	a1,9
    800016e4:	00f57793          	andi	a5,a0,15
    800016e8:	03000613          	li	a2,48
    800016ec:	0ff7f693          	andi	a3,a5,255
    800016f0:	00f5f463          	bleu	a5,a1,800016f8 <printhex+0x28>
    800016f4:	05700613          	li	a2,87
    800016f8:	00c687bb          	addw	a5,a3,a2
    800016fc:	00f70023          	sb	a5,0(a4)
    80001700:	fff70713          	addi	a4,a4,-1
    80001704:	00455513          	srli	a0,a0,0x4
    80001708:	fce81ee3          	bne	a6,a4,800016e4 <printhex+0x14>
    8000170c:	00810513          	addi	a0,sp,8
    80001710:	00010c23          	sb	zero,24(sp)
    80001714:	f31ff0ef          	jal	ra,80001644 <printstr>
    80001718:	02813083          	ld	ra,40(sp)
    8000171c:	03010113          	addi	sp,sp,48
    80001720:	00008067          	ret

0000000080001724 <printf>:
    80001724:	fa010113          	addi	sp,sp,-96
    80001728:	02810313          	addi	t1,sp,40
    8000172c:	02b13423          	sd	a1,40(sp)
    80001730:	02c13823          	sd	a2,48(sp)
    80001734:	02d13c23          	sd	a3,56(sp)
    80001738:	00050613          	mv	a2,a0
    8000173c:	00030693          	mv	a3,t1
    80001740:	00000517          	auipc	a0,0x0
    80001744:	dcc50513          	addi	a0,a0,-564 # 8000150c <putchar>
    80001748:	00000593          	li	a1,0
    8000174c:	00113c23          	sd	ra,24(sp)
    80001750:	04e13023          	sd	a4,64(sp)
    80001754:	04f13423          	sd	a5,72(sp)
    80001758:	05013823          	sd	a6,80(sp)
    8000175c:	05113c23          	sd	a7,88(sp)
    80001760:	00613423          	sd	t1,8(sp)
    80001764:	941ff0ef          	jal	ra,800010a4 <vprintfmt>
    80001768:	01813083          	ld	ra,24(sp)
    8000176c:	00000513          	li	a0,0
    80001770:	06010113          	addi	sp,sp,96
    80001774:	00008067          	ret

0000000080001778 <sprintf>:
    80001778:	fa010113          	addi	sp,sp,-96
    8000177c:	03010313          	addi	t1,sp,48
    80001780:	02813023          	sd	s0,32(sp)
    80001784:	00a13423          	sd	a0,8(sp)
    80001788:	02c13823          	sd	a2,48(sp)
    8000178c:	02d13c23          	sd	a3,56(sp)
    80001790:	00050413          	mv	s0,a0
    80001794:	00058613          	mv	a2,a1
    80001798:	00000517          	auipc	a0,0x0
    8000179c:	d5c50513          	addi	a0,a0,-676 # 800014f4 <sprintf_putch.2952>
    800017a0:	00810593          	addi	a1,sp,8
    800017a4:	00030693          	mv	a3,t1
    800017a8:	02113423          	sd	ra,40(sp)
    800017ac:	04f13423          	sd	a5,72(sp)
    800017b0:	04e13023          	sd	a4,64(sp)
    800017b4:	05013823          	sd	a6,80(sp)
    800017b8:	05113c23          	sd	a7,88(sp)
    800017bc:	00613c23          	sd	t1,24(sp)
    800017c0:	8e5ff0ef          	jal	ra,800010a4 <vprintfmt>
    800017c4:	00813783          	ld	a5,8(sp)
    800017c8:	00078023          	sb	zero,0(a5)
    800017cc:	00813503          	ld	a0,8(sp)
    800017d0:	02813083          	ld	ra,40(sp)
    800017d4:	4085053b          	subw	a0,a0,s0
    800017d8:	02013403          	ld	s0,32(sp)
    800017dc:	06010113          	addi	sp,sp,96
    800017e0:	00008067          	ret

00000000800017e4 <memcpy>:
    800017e4:	00c5e7b3          	or	a5,a1,a2
    800017e8:	00f567b3          	or	a5,a0,a5
    800017ec:	0077f793          	andi	a5,a5,7
    800017f0:	00c506b3          	add	a3,a0,a2
    800017f4:	02078463          	beqz	a5,8000181c <memcpy+0x38>
    800017f8:	00c58633          	add	a2,a1,a2
    800017fc:	00050793          	mv	a5,a0
    80001800:	02d57e63          	bleu	a3,a0,8000183c <memcpy+0x58>
    80001804:	00158593          	addi	a1,a1,1
    80001808:	fff5c703          	lbu	a4,-1(a1)
    8000180c:	00178793          	addi	a5,a5,1
    80001810:	fee78fa3          	sb	a4,-1(a5)
    80001814:	feb618e3          	bne	a2,a1,80001804 <memcpy+0x20>
    80001818:	00008067          	ret
    8000181c:	fed57ee3          	bleu	a3,a0,80001818 <memcpy+0x34>
    80001820:	00050793          	mv	a5,a0
    80001824:	00858593          	addi	a1,a1,8
    80001828:	ff85b703          	ld	a4,-8(a1)
    8000182c:	00878793          	addi	a5,a5,8
    80001830:	fee7bc23          	sd	a4,-8(a5)
    80001834:	fed7e8e3          	bltu	a5,a3,80001824 <memcpy+0x40>
    80001838:	00008067          	ret
    8000183c:	00008067          	ret

0000000080001840 <memset>:
    80001840:	00c567b3          	or	a5,a0,a2
    80001844:	0077f793          	andi	a5,a5,7
    80001848:	00c50633          	add	a2,a0,a2
    8000184c:	0ff5f593          	andi	a1,a1,255
    80001850:	00078e63          	beqz	a5,8000186c <memset+0x2c>
    80001854:	00050793          	mv	a5,a0
    80001858:	04c57263          	bleu	a2,a0,8000189c <memset+0x5c>
    8000185c:	00178793          	addi	a5,a5,1
    80001860:	feb78fa3          	sb	a1,-1(a5)
    80001864:	fef61ce3          	bne	a2,a5,8000185c <memset+0x1c>
    80001868:	00008067          	ret
    8000186c:	00859793          	slli	a5,a1,0x8
    80001870:	00f5e7b3          	or	a5,a1,a5
    80001874:	01079593          	slli	a1,a5,0x10
    80001878:	00b7e7b3          	or	a5,a5,a1
    8000187c:	02079713          	slli	a4,a5,0x20
    80001880:	00e7e7b3          	or	a5,a5,a4
    80001884:	fec572e3          	bleu	a2,a0,80001868 <memset+0x28>
    80001888:	00050713          	mv	a4,a0
    8000188c:	00870713          	addi	a4,a4,8
    80001890:	fef73c23          	sd	a5,-8(a4)
    80001894:	fec76ce3          	bltu	a4,a2,8000188c <memset+0x4c>
    80001898:	00008067          	ret
    8000189c:	00008067          	ret

00000000800018a0 <_init>:
    800018a0:	f4010113          	addi	sp,sp,-192
    800018a4:	0a813823          	sd	s0,176(sp)
    800018a8:	0a913423          	sd	s1,168(sp)
    800018ac:	00020493          	mv	s1,tp
    800018b0:	00020413          	mv	s0,tp
    800018b4:	40848433          	sub	s0,s1,s0
    800018b8:	00040613          	mv	a2,s0
    800018bc:	09313c23          	sd	s3,152(sp)
    800018c0:	09413823          	sd	s4,144(sp)
    800018c4:	00050993          	mv	s3,a0
    800018c8:	00058a13          	mv	s4,a1
    800018cc:	00020513          	mv	a0,tp
    800018d0:	00002597          	auipc	a1,0x2
    800018d4:	47058593          	addi	a1,a1,1136 # 80003d40 <_end>
    800018d8:	0a113c23          	sd	ra,184(sp)
    800018dc:	0b213023          	sd	s2,160(sp)
    800018e0:	09513423          	sd	s5,136(sp)
    800018e4:	00020a93          	mv	s5,tp
    800018e8:	efdff0ef          	jal	ra,800017e4 <memcpy>
    800018ec:	04420613          	addi	a2,tp,68 # 44 <_tbss_end>
    800018f0:	40960633          	sub	a2,a2,s1
    800018f4:	00000593          	li	a1,0
    800018f8:	008a8533          	add	a0,s5,s0
    800018fc:	f45ff0ef          	jal	ra,80001840 <memset>
    80001900:	00098513          	mv	a0,s3
    80001904:	000a0593          	mv	a1,s4
    80001908:	dbdff0ef          	jal	ra,800016c4 <thread_entry>
    8000190c:	00000593          	li	a1,0
    80001910:	00000513          	li	a0,0
    80001914:	1b0000ef          	jal	ra,80001ac4 <main>
    80001918:	00002417          	auipc	s0,0x2
    8000191c:	3f040413          	addi	s0,s0,1008 # 80003d08 <counters>
    80001920:	00043683          	ld	a3,0(s0)
    80001924:	03f10913          	addi	s2,sp,63
    80001928:	fc097913          	andi	s2,s2,-64
    8000192c:	00050993          	mv	s3,a0
    80001930:	04069063          	bnez	a3,80001970 <_init+0xd0>
    80001934:	00843683          	ld	a3,8(s0)
    80001938:	00069663          	bnez	a3,80001944 <_init+0xa4>
    8000193c:	00098513          	mv	a0,s3
    80001940:	cc1ff0ef          	jal	ra,80001600 <tohost_exit>
    80001944:	00090493          	mv	s1,s2
    80001948:	01843603          	ld	a2,24(s0)
    8000194c:	00048513          	mv	a0,s1
    80001950:	00000597          	auipc	a1,0x0
    80001954:	3d858593          	addi	a1,a1,984 # 80001d28 <main+0x264>
    80001958:	e21ff0ef          	jal	ra,80001778 <sprintf>
    8000195c:	00a484b3          	add	s1,s1,a0
    80001960:	fc990ee3          	beq	s2,s1,8000193c <_init+0x9c>
    80001964:	00090513          	mv	a0,s2
    80001968:	cddff0ef          	jal	ra,80001644 <printstr>
    8000196c:	fd1ff06f          	j	8000193c <_init+0x9c>
    80001970:	01043603          	ld	a2,16(s0)
    80001974:	00000597          	auipc	a1,0x0
    80001978:	3b458593          	addi	a1,a1,948 # 80001d28 <main+0x264>
    8000197c:	00090513          	mv	a0,s2
    80001980:	df9ff0ef          	jal	ra,80001778 <sprintf>
    80001984:	00843683          	ld	a3,8(s0)
    80001988:	00a904b3          	add	s1,s2,a0
    8000198c:	fc068ae3          	beqz	a3,80001960 <_init+0xc0>
    80001990:	fb9ff06f          	j	80001948 <_init+0xa8>

0000000080001994 <strlen>:
    80001994:	00054783          	lbu	a5,0(a0)
    80001998:	00050713          	mv	a4,a0
    8000199c:	00078c63          	beqz	a5,800019b4 <strlen+0x20>
    800019a0:	00150513          	addi	a0,a0,1
    800019a4:	00054783          	lbu	a5,0(a0)
    800019a8:	fe079ce3          	bnez	a5,800019a0 <strlen+0xc>
    800019ac:	40e50533          	sub	a0,a0,a4
    800019b0:	00008067          	ret
    800019b4:	00000513          	li	a0,0
    800019b8:	00008067          	ret

00000000800019bc <strnlen>:
    800019bc:	00050713          	mv	a4,a0
    800019c0:	02058663          	beqz	a1,800019ec <strnlen+0x30>
    800019c4:	00054783          	lbu	a5,0(a0)
    800019c8:	02078263          	beqz	a5,800019ec <strnlen+0x30>
    800019cc:	00b505b3          	add	a1,a0,a1
    800019d0:	00c0006f          	j	800019dc <strnlen+0x20>
    800019d4:	00054783          	lbu	a5,0(a0)
    800019d8:	00078663          	beqz	a5,800019e4 <strnlen+0x28>
    800019dc:	00150513          	addi	a0,a0,1
    800019e0:	feb51ae3          	bne	a0,a1,800019d4 <strnlen+0x18>
    800019e4:	40e50533          	sub	a0,a0,a4
    800019e8:	00008067          	ret
    800019ec:	00000513          	li	a0,0
    800019f0:	00008067          	ret

00000000800019f4 <strcmp>:
    800019f4:	00150513          	addi	a0,a0,1
    800019f8:	fff54783          	lbu	a5,-1(a0)
    800019fc:	00158593          	addi	a1,a1,1
    80001a00:	fff5c703          	lbu	a4,-1(a1)
    80001a04:	00078a63          	beqz	a5,80001a18 <strcmp+0x24>
    80001a08:	fee786e3          	beq	a5,a4,800019f4 <strcmp>
    80001a0c:	0007851b          	sext.w	a0,a5
    80001a10:	40e5053b          	subw	a0,a0,a4
    80001a14:	00008067          	ret
    80001a18:	00000513          	li	a0,0
    80001a1c:	ff5ff06f          	j	80001a10 <strcmp+0x1c>

0000000080001a20 <strcpy>:
    80001a20:	00050793          	mv	a5,a0
    80001a24:	00158593          	addi	a1,a1,1
    80001a28:	fff5c703          	lbu	a4,-1(a1)
    80001a2c:	00178793          	addi	a5,a5,1
    80001a30:	fee78fa3          	sb	a4,-1(a5)
    80001a34:	fe0718e3          	bnez	a4,80001a24 <strcpy+0x4>
    80001a38:	00008067          	ret

0000000080001a3c <atol>:
    80001a3c:	00054783          	lbu	a5,0(a0)
    80001a40:	02000713          	li	a4,32
    80001a44:	00e79863          	bne	a5,a4,80001a54 <atol+0x18>
    80001a48:	00150513          	addi	a0,a0,1
    80001a4c:	00054783          	lbu	a5,0(a0)
    80001a50:	fee78ce3          	beq	a5,a4,80001a48 <atol+0xc>
    80001a54:	fd57871b          	addiw	a4,a5,-43
    80001a58:	0fd77713          	andi	a4,a4,253
    80001a5c:	04070263          	beqz	a4,80001aa0 <atol+0x64>
    80001a60:	00054683          	lbu	a3,0(a0)
    80001a64:	00050793          	mv	a5,a0
    80001a68:	00000613          	li	a2,0
    80001a6c:	04068863          	beqz	a3,80001abc <atol+0x80>
    80001a70:	00000513          	li	a0,0
    80001a74:	00178793          	addi	a5,a5,1
    80001a78:	fd06859b          	addiw	a1,a3,-48
    80001a7c:	00251713          	slli	a4,a0,0x2
    80001a80:	0007c683          	lbu	a3,0(a5)
    80001a84:	00a70533          	add	a0,a4,a0
    80001a88:	00151513          	slli	a0,a0,0x1
    80001a8c:	00a58533          	add	a0,a1,a0
    80001a90:	fe0692e3          	bnez	a3,80001a74 <atol+0x38>
    80001a94:	00060463          	beqz	a2,80001a9c <atol+0x60>
    80001a98:	40a00533          	neg	a0,a0
    80001a9c:	00008067          	ret
    80001aa0:	00154683          	lbu	a3,1(a0)
    80001aa4:	fd378793          	addi	a5,a5,-45
    80001aa8:	0017b613          	seqz	a2,a5
    80001aac:	00150793          	addi	a5,a0,1
    80001ab0:	fc0690e3          	bnez	a3,80001a70 <atol+0x34>
    80001ab4:	00000513          	li	a0,0
    80001ab8:	fddff06f          	j	80001a94 <atol+0x58>
    80001abc:	00000513          	li	a0,0
    80001ac0:	00008067          	ret

Desmontagem da seção .text.startup:

0000000080001ac4 <main>:
    80001ac4:	ff010113          	addi	sp,sp,-16
    80001ac8:	00113423          	sd	ra,8(sp)
    80001acc:	fff00793          	li	a5,-1
    80001ad0:	00100513          	li	a0,1
    80001ad4:	ad1ff0ef          	jal	ra,800015a4 <setStats>
    80001ad8:	edb88637          	lui	a2,0xedb88
    80001adc:	00000817          	auipc	a6,0x0
    80001ae0:	2c480813          	addi	a6,a6,708 # 80001da0 <result>
    80001ae4:	00000517          	auipc	a0,0x0
    80001ae8:	25550513          	addi	a0,a0,597 # 80001d39 <data+0x1>
    80001aec:	00000897          	auipc	a7,0x0
    80001af0:	2b188893          	addi	a7,a7,689 # 80001d9d <data+0x65>
    80001af4:	32060613          	addi	a2,a2,800 # ffffffffedb88320 <_end+0xffffffff6db845e0>
    80001af8:	fff54783          	lbu	a5,-1(a0)
    80001afc:	06078663          	beqz	a5,80001b68 <main+0xa4>
    80001b00:	00050593          	mv	a1,a0
    80001b04:	fff00713          	li	a4,-1
    80001b08:	00e7c733          	xor	a4,a5,a4
    80001b0c:	00800693          	li	a3,8
    80001b10:	00177793          	andi	a5,a4,1
    80001b14:	40f007bb          	negw	a5,a5
    80001b18:	0017571b          	srliw	a4,a4,0x1
    80001b1c:	00f677b3          	and	a5,a2,a5
    80001b20:	00e7c7b3          	xor	a5,a5,a4
    80001b24:	fff6869b          	addiw	a3,a3,-1
    80001b28:	0007871b          	sext.w	a4,a5
    80001b2c:	fe0692e3          	bnez	a3,80001b10 <main+0x4c>
    80001b30:	00158593          	addi	a1,a1,1
    80001b34:	fff5c783          	lbu	a5,-1(a1)
    80001b38:	fc0798e3          	bnez	a5,80001b08 <main+0x44>
    80001b3c:	fff74793          	not	a5,a4
    80001b40:	00f82023          	sw	a5,0(a6)
    80001b44:	00a50513          	addi	a0,a0,10
    80001b48:	00480813          	addi	a6,a6,4
    80001b4c:	faa896e3          	bne	a7,a0,80001af8 <main+0x34>
    80001b50:	00000513          	li	a0,0
    80001b54:	a51ff0ef          	jal	ra,800015a4 <setStats>
    80001b58:	00813083          	ld	ra,8(sp)
    80001b5c:	00000513          	li	a0,0
    80001b60:	01010113          	addi	sp,sp,16
    80001b64:	00008067          	ret
    80001b68:	00000793          	li	a5,0
    80001b6c:	fd5ff06f          	j	80001b40 <main+0x7c>
    80001b70:	ff010113          	addi	sp,sp,-16
    80001b74:	00000517          	auipc	a0,0x0
    80001b78:	19c50513          	addi	a0,a0,412 # 80001d10 <main+0x24c>
    80001b7c:	00113423          	sd	ra,8(sp)
    80001b80:	ac5ff0ef          	jal	ra,80001644 <printstr>
    80001b84:	00813083          	ld	ra,8(sp)
    80001b88:	fff00513          	li	a0,-1
    80001b8c:	01010113          	addi	sp,sp,16
    80001b90:	00008067          	ret

Desmontagem da seção .data:

0000000080001d38 <data>:
    80001d38:	bbaa                	fsd	fa0,496(sp)
    80001d3a:	ddcc                	sw	a1,60(a1)
    80001d3c:	3c32                	fld	fs8,296(sp)
    80001d3e:	5046                	0x5046
    80001d40:	655a                	ld	a0,400(sp)
    80001d42:	291f1503          	lh	a0,657(t5)
    80001d46:	51473d33          	0x51473d33
    80001d4a:	162b655b          	0x162b655b
    80001d4e:	2a20                	fld	fs0,80(a2)
    80001d50:	3e34                	fld	fa3,120(a2)
    80001d52:	5248                	lw	a0,36(a2)
    80001d54:	665c                	ld	a5,136(a2)
    80001d56:	1705                	addi	a4,a4,-31
    80001d58:	2b21                	addiw	s6,s6,8
    80001d5a:	3f35                	addiw	t5,t5,-19
    80001d5c:	5349                	li	t1,-14
    80001d5e:	675d                	lui	a4,0x17
    80001d60:	180e                	slli	a6,a6,0x23
    80001d62:	2c22                	fld	fs8,8(sp)
    80001d64:	4036                	0x4036
    80001d66:	544a                	lw	s0,176(sp)
    80001d68:	685e                	ld	a6,464(sp)
    80001d6a:	2d23190f          	0x2d23190f
    80001d6e:	554b4137          	lui	sp,0x554b4
    80001d72:	695f 1a10 2e24      	0x2e241a10695f
    80001d78:	4238                	lw	a4,64(a2)
    80001d7a:	564c                	lw	a1,44(a2)
    80001d7c:	1860                	addi	s0,sp,60
    80001d7e:	1c12                	slli	s8,s8,0x24
    80001d80:	3026                	fld	ft0,104(sp)
    80001d82:	443a                	lw	s0,140(sp)
    80001d84:	584e                	lw	a6,240(sp)
    80001d86:	0462                	slli	s0,s0,0x18
    80001d88:	31271d13          	0x31271d13
    80001d8c:	594f453b          	0x594f453b
    80001d90:	bbaa0263          	beq	s4,s10,80001134 <vprintfmt+0x90>
    80001d94:	ddcc                	sw	a1,60(a1)
    80001d96:	3c32                	fld	fs8,296(sp)
    80001d98:	5046                	0x5046
    80001d9a:	655a                	ld	a0,400(sp)
